target datalayout = "e-m:e-p270:32:32-p271:32:32-p272:64:64-i64:64-i128:128-f80:128-n8:16:32:64-S128"
target triple = "x86_64-pc-linux-gnu"

%union.pthread_mutex_t = type { %struct.__pthread_mutex_s }
%struct.__pthread_mutex_s = type { i32, i32, i32, i32, i32, i16, i16, %struct.__pthread_internal_list }
%struct.__pthread_internal_list = type { ptr, ptr }
%struct.thread_status_t = type { ptr, i64, %union.pthread_mutex_t, %union.pthread_cond_t, [24 x i8] }
%union.pthread_cond_t = type { %struct.__pthread_cond_s }
%struct.__pthread_cond_s = type { %union.__atomic_wide_counter, %union.__atomic_wide_counter, [2 x i32], [2 x i32], i32, i32, [2 x i32] }
%union.__atomic_wide_counter = type { i64 }

@blas_server_avail = global i32 0, align 128
@blas_threads = internal global [16 x i64] zeroinitializer, align 16
@server_lock = internal global %union.pthread_mutex_t zeroinitializer, align 8
@blas_num_threads = external global i32, align 4
@thread_status = internal global [16 x %struct.thread_status_t] zeroinitializer, align 128
@blas_thread_buffer = internal global [16 x ptr] zeroinitializer, align 16

; Function Attrs: nounwind uwtable
define i32 @blas_thread_shutdown_() #0 {
  %1 = alloca i32, align 4
  %2 = alloca ptr, align 8
  call void @llvm.lifetime.start.p0(i64 4, ptr %1) #8
  %3 = call i32 @pthread_mutex_lock(ptr noundef @server_lock) #8
  store i32 0, ptr %1, align 4, !tbaa !3
  br label %4

4:                                                ; preds = %22, %0
  %5 = load i32, ptr %1, align 4, !tbaa !3
  %6 = icmp slt i32 %5, 16
  br i1 %6, label %7, label %25

7:                                                ; preds = %4
  %8 = load i32, ptr %1, align 4, !tbaa !3
  %9 = sext i32 %8 to i64
  %10 = getelementptr inbounds [16 x ptr], ptr @blas_thread_buffer, i64 0, i64 %9
  %11 = load ptr, ptr %10, align 8, !tbaa !9
  %12 = icmp ne ptr %11, null
  br i1 %12, label %13, label %21

13:                                               ; preds = %7
  %14 = load i32, ptr %1, align 4, !tbaa !3
  %15 = sext i32 %14 to i64
  %16 = getelementptr inbounds [16 x ptr], ptr @blas_thread_buffer, i64 0, i64 %15
  %17 = load ptr, ptr %16, align 8, !tbaa !9
  call void @blas_memory_free(ptr noundef %17)
  %18 = load i32, ptr %1, align 4, !tbaa !3
  %19 = sext i32 %18 to i64
  %20 = getelementptr inbounds [16 x ptr], ptr @blas_thread_buffer, i64 0, i64 %19
  store ptr null, ptr %20, align 8, !tbaa !9
  br label %21

21:                                               ; preds = %13, %7
  br label %22

22:                                               ; preds = %21
  %23 = load i32, ptr %1, align 4, !tbaa !3
  %24 = add nsw i32 %23, 1
  store i32 %24, ptr %1, align 4, !tbaa !3
  br label %4, !llvm.loop !74

25:                                               ; preds = %4
  %26 = load i32, ptr @blas_server_avail, align 128, !tbaa !3
  %27 = icmp ne i32 %26, 0
  br i1 %27, label %28, label %98

28:                                               ; preds = %25
  store i32 0, ptr %1, align 4, !tbaa !3
  br label %29

29:                                               ; preds = %59, %28
  %30 = load i32, ptr %1, align 4, !tbaa !3
  %31 = load i32, ptr @blas_num_threads, align 4, !tbaa !3
  %32 = sub nsw i32 %31, 1
  %33 = icmp slt i32 %30, %32
  br i1 %33, label %34, label %62

34:                                               ; preds = %29
  %35 = load i32, ptr %1, align 4, !tbaa !3
  %36 = sext i32 %35 to i64
  %37 = getelementptr inbounds [16 x %struct.thread_status_t], ptr @thread_status, i64 0, i64 %36
  %38 = getelementptr inbounds nuw %struct.thread_status_t, ptr %37, i32 0, i32 2
  %39 = call i32 @pthread_mutex_lock(ptr noundef %38) #8
  %40 = load i32, ptr %1, align 4, !tbaa !3
  %41 = sext i32 %40 to i64
  %42 = getelementptr inbounds [16 x %struct.thread_status_t], ptr @thread_status, i64 0, i64 %41
  %43 = getelementptr inbounds nuw %struct.thread_status_t, ptr %42, i32 0, i32 0
  store ptr inttoptr (i64 -1 to ptr), ptr %2, align 8, !tbaa !11
  %44 = load i64, ptr %2, align 8
  store atomic volatile i64 %44, ptr %43 monotonic, align 128
  %45 = load i32, ptr %1, align 4, !tbaa !3
  %46 = sext i32 %45 to i64
  %47 = getelementptr inbounds [16 x %struct.thread_status_t], ptr @thread_status, i64 0, i64 %46
  %48 = getelementptr inbounds nuw %struct.thread_status_t, ptr %47, i32 0, i32 1
  store volatile i64 4, ptr %48, align 8, !tbaa !13
  %49 = load i32, ptr %1, align 4, !tbaa !3
  %50 = sext i32 %49 to i64
  %51 = getelementptr inbounds [16 x %struct.thread_status_t], ptr @thread_status, i64 0, i64 %50
  %52 = getelementptr inbounds nuw %struct.thread_status_t, ptr %51, i32 0, i32 3
  %53 = call i32 @pthread_cond_signal(ptr noundef %52) #8
  %54 = load i32, ptr %1, align 4, !tbaa !3
  %55 = sext i32 %54 to i64
  %56 = getelementptr inbounds [16 x %struct.thread_status_t], ptr @thread_status, i64 0, i64 %55
  %57 = getelementptr inbounds nuw %struct.thread_status_t, ptr %56, i32 0, i32 2
  %58 = call i32 @pthread_mutex_unlock(ptr noundef %57) #8
  br label %59

59:                                               ; preds = %34
  %60 = load i32, ptr %1, align 4, !tbaa !3
  %61 = add nsw i32 %60, 1
  store i32 %61, ptr %1, align 4, !tbaa !3
  br label %29, !llvm.loop !75

62:                                               ; preds = %29
  store i32 0, ptr %1, align 4, !tbaa !3
  br label %63

63:                                               ; preds = %74, %62
  %64 = load i32, ptr %1, align 4, !tbaa !3
  %65 = load i32, ptr @blas_num_threads, align 4, !tbaa !3
  %66 = sub nsw i32 %65, 1
  %67 = icmp slt i32 %64, %66
  br i1 %67, label %68, label %77

68:                                               ; preds = %63
  %69 = load i32, ptr %1, align 4, !tbaa !3
  %70 = sext i32 %69 to i64
  %71 = getelementptr inbounds [16 x i64], ptr @blas_threads, i64 0, i64 %70
  %72 = load i64, ptr %71, align 8, !tbaa !7
  %73 = call i32 @pthread_join(i64 noundef %72, ptr noundef null)
  br label %74

74:                                               ; preds = %68
  %75 = load i32, ptr %1, align 4, !tbaa !3
  %76 = add nsw i32 %75, 1
  store i32 %76, ptr %1, align 4, !tbaa !3
  br label %63, !llvm.loop !76

77:                                               ; preds = %63
  store i32 0, ptr %1, align 4, !tbaa !3
  br label %78

78:                                               ; preds = %94, %77
  %79 = load i32, ptr %1, align 4, !tbaa !3
  %80 = load i32, ptr @blas_num_threads, align 4, !tbaa !3
  %81 = sub nsw i32 %80, 1
  %82 = icmp slt i32 %79, %81
  br i1 %82, label %83, label %97

83:                                               ; preds = %78
  %84 = load i32, ptr %1, align 4, !tbaa !3
  %85 = sext i32 %84 to i64
  %86 = getelementptr inbounds [16 x %struct.thread_status_t], ptr @thread_status, i64 0, i64 %85
  %87 = getelementptr inbounds nuw %struct.thread_status_t, ptr %86, i32 0, i32 2
  %88 = call i32 @pthread_mutex_destroy(ptr noundef %87) #8
  %89 = load i32, ptr %1, align 4, !tbaa !3
  %90 = sext i32 %89 to i64
  %91 = getelementptr inbounds [16 x %struct.thread_status_t], ptr @thread_status, i64 0, i64 %90
  %92 = getelementptr inbounds nuw %struct.thread_status_t, ptr %91, i32 0, i32 3
  %93 = call i32 @pthread_cond_destroy(ptr noundef %92) #8
  br label %94

94:                                               ; preds = %83
  %95 = load i32, ptr %1, align 4, !tbaa !3
  %96 = add nsw i32 %95, 1
  store i32 %96, ptr %1, align 4, !tbaa !3
  br label %78, !llvm.loop !77

97:                                               ; preds = %78
  store i32 0, ptr @blas_server_avail, align 128, !tbaa !3
  br label %98

98:                                               ; preds = %97, %25
  %99 = call i32 @pthread_mutex_unlock(ptr noundef @server_lock) #8
  call void @llvm.lifetime.end.p0(i64 4, ptr %1) #8
  ret i32 0
}