; Function Attrs: nounwind uwtable
define noundef i32 @blas_thread_shutdown_() local_unnamed_addr #0 {
  %1 = tail call i32 @pthread_mutex_lock(ptr noundef nonnull @server_lock) #10
  br label %2

2:                                                ; preds = %0, %6
  %indvars.iv = phi i64 [ 0, %0 ], [ %indvars.iv.next, %6 ]
  %3 = getelementptr inbounds nuw [16 x ptr], ptr @blas_thread_buffer, i64 0, i64 %indvars.iv
  %4 = load ptr, ptr %3, align 8, !tbaa !9
  %.not21 = icmp eq ptr %4, null
  br i1 %.not21, label %6, label %5

5:                                                ; preds = %2
  tail call void @blas_memory_free(ptr noundef nonnull %4) #10
  store ptr null, ptr %3, align 8, !tbaa !9
  br label %6

6:                                                ; preds = %2, %5
  %indvars.iv.next = add nuw nsw i64 %indvars.iv, 1
  %exitcond.not = icmp eq i64 %indvars.iv.next, 16
  br i1 %exitcond.not, label %7, label %2, !llvm.loop !73

7:                                                ; preds = %6
  %8 = load i32, ptr @blas_server_avail, align 128, !tbaa !3
  %.not = icmp eq i32 %8, 0
  br i1 %.not, label %40, label %.preheader23

.preheader23:                                     ; preds = %7
  %9 = load i32, ptr @blas_num_threads, align 4, !tbaa !3
  %10 = icmp sgt i32 %9, 1
  br i1 %10, label %.lr.ph, label %._crit_edge

.preheader22:                                     ; preds = %.lr.ph
  %11 = icmp sgt i32 %19, 1
  br i1 %11, label %.lr.ph27, label %._crit_edge

.lr.ph:                                           ; preds = %.preheader23, %.lr.ph
  %indvars.iv31 = phi i64 [ %indvars.iv.next32, %.lr.ph ], [ 0, %.preheader23 ]
  %12 = getelementptr inbounds nuw [16 x %struct.thread_status_t], ptr @thread_status, i64 0, i64 %indvars.iv31
  %13 = getelementptr inbounds nuw i8, ptr %12, i64 16
  %14 = tail call i32 @pthread_mutex_lock(ptr noundef nonnull %13) #10
  store atomic volatile i64 -1, ptr %12 monotonic, align 128
  %15 = getelementptr inbounds nuw i8, ptr %12, i64 8
  store volatile i64 4, ptr %15, align 8, !tbaa !14
  %16 = getelementptr inbounds nuw i8, ptr %12, i64 56
  %17 = tail call i32 @pthread_cond_signal(ptr noundef nonnull %16) #10
  %18 = tail call i32 @pthread_mutex_unlock(ptr noundef nonnull %13) #10
  %indvars.iv.next32 = add nuw nsw i64 %indvars.iv31, 1
  %19 = load i32, ptr @blas_num_threads, align 4, !tbaa !3
  %20 = add nsw i32 %19, -1
  %21 = sext i32 %20 to i64
  %22 = icmp slt i64 %indvars.iv.next32, %21
  br i1 %22, label %.lr.ph, label %.preheader22, !llvm.loop !74

.preheader:                                       ; preds = %.lr.ph27
  %23 = icmp sgt i32 %27, 1
  br i1 %23, label %.lr.ph29, label %._crit_edge

.lr.ph27:                                         ; preds = %.preheader22, %.lr.ph27
  %indvars.iv34 = phi i64 [ %indvars.iv.next35, %.lr.ph27 ], [ 0, %.preheader22 ]
  %24 = getelementptr inbounds nuw [16 x i64], ptr @blas_threads, i64 0, i64 %indvars.iv34
  %25 = load i64, ptr %24, align 8, !tbaa !7
  %26 = tail call i32 @pthread_join(i64 noundef %25, ptr noundef null) #10
  %indvars.iv.next35 = add nuw nsw i64 %indvars.iv34, 1
  %27 = load i32, ptr @blas_num_threads, align 4, !tbaa !3
  %28 = add nsw i32 %27, -1
  %29 = sext i32 %28 to i64
  %30 = icmp slt i64 %indvars.iv.next35, %29
  br i1 %30, label %.lr.ph27, label %.preheader, !llvm.loop !75

.lr.ph29:                                         ; preds = %.preheader, %.lr.ph29
  %indvars.iv37 = phi i64 [ %indvars.iv.next38, %.lr.ph29 ], [ 0, %.preheader ]
  %31 = getelementptr inbounds nuw [16 x %struct.thread_status_t], ptr @thread_status, i64 0, i64 %indvars.iv37
  %32 = getelementptr inbounds nuw i8, ptr %31, i64 16
  %33 = tail call i32 @pthread_mutex_destroy(ptr noundef nonnull %32) #10
  %34 = getelementptr inbounds nuw i8, ptr %31, i64 56
  %35 = tail call i32 @pthread_cond_destroy(ptr noundef nonnull %34) #10
  %indvars.iv.next38 = add nuw nsw i64 %indvars.iv37, 1
  %36 = load i32, ptr @blas_num_threads, align 4, !tbaa !3
  %37 = add nsw i32 %36, -1
  %38 = sext i32 %37 to i64
  %39 = icmp slt i64 %indvars.iv.next38, %38
  br i1 %39, label %.lr.ph29, label %._crit_edge, !llvm.loop !76

._crit_edge:                                      ; preds = %.lr.ph29, %.preheader23, %.preheader22, %.preheader
  store i32 0, ptr @blas_server_avail, align 128, !tbaa !3
  br label %40

40:                                               ; preds = %._crit_edge, %7
  %41 = tail call i32 @pthread_mutex_unlock(ptr noundef nonnull @server_lock) #10
  ret i32 0
}